; Function Attrs: mustprogress nounwind uwtable
define internal fastcc void @_ZN12_GLOBAL__N_111StmtPrinter22VisitOMPErrorDirectiveEPN5clang17OMPErrorDirectiveE(ptr noundef nonnull align 8 dereferenceable(80) %0, ptr noundef readonly captures(none) %1) unnamed_addr #0 align 2 {
  %3 = getelementptr inbounds nuw i8, ptr %0, i64 8
  %4 = load i32, ptr %3, align 8
  %5 = icmp sgt i32 %4, 0
  br i1 %5, label %.lr.ph.i, label %_ZN12_GLOBAL__N_111StmtPrinter6IndentEi.exit

.lr.ph.i:                                         ; preds = %2, %_ZN4llvm11raw_ostreamlsEPKc.exit.i
  %.04.i = phi i32 [ %20, %_ZN4llvm11raw_ostreamlsEPKc.exit.i ], [ 0, %2 ]
  %6 = load ptr, ptr %0, align 8
  %7 = getelementptr inbounds nuw i8, ptr %6, i64 24
  %8 = load ptr, ptr %7, align 8
  %9 = getelementptr inbounds nuw i8, ptr %6, i64 32
  %10 = load ptr, ptr %9, align 8
  %11 = ptrtoint ptr %8 to i64
  %12 = ptrtoint ptr %10 to i64
  %13 = sub i64 %11, %12
  %14 = icmp ult i64 %13, 2
  br i1 %14, label %15, label %17

15:                                               ; preds = %.lr.ph.i
  %16 = tail call noundef nonnull align 8 dereferenceable(48) ptr @_ZN4llvm11raw_ostream5writeEPKcm(ptr noundef nonnull align 8 dereferenceable(48) %6, ptr noundef nonnull @.str.3, i64 noundef 2) #19
  br label %_ZN4llvm11raw_ostreamlsEPKc.exit.i

17:                                               ; preds = %.lr.ph.i
  store i16 8224, ptr %10, align 1
  %18 = load ptr, ptr %9, align 8
  %19 = getelementptr inbounds nuw i8, ptr %18, i64 2
  store ptr %19, ptr %9, align 8
  br label %_ZN4llvm11raw_ostreamlsEPKc.exit.i

_ZN4llvm11raw_ostreamlsEPKc.exit.i:               ; preds = %17, %15
  %20 = add nuw nsw i32 %.04.i, 1
  %exitcond.not.i = icmp eq i32 %20, %4
  br i1 %exitcond.not.i, label %_ZN12_GLOBAL__N_111StmtPrinter6IndentEi.exit, label %.lr.ph.i, !llvm.loop !16

_ZN12_GLOBAL__N_111StmtPrinter6IndentEi.exit:     ; preds = %_ZN4llvm11raw_ostreamlsEPKc.exit.i, %2
  %21 = load ptr, ptr %0, align 8
  %22 = getelementptr inbounds nuw i8, ptr %21, i64 24
  %23 = load ptr, ptr %22, align 8
  %24 = getelementptr inbounds nuw i8, ptr %21, i64 32
  %25 = load ptr, ptr %24, align 8
  %26 = ptrtoint ptr %23 to i64
  %27 = ptrtoint ptr %25 to i64
  %28 = sub i64 %26, %27
  %29 = icmp ult i64 %28, 17
  br i1 %29, label %30, label %32

30:                                               ; preds = %_ZN12_GLOBAL__N_111StmtPrinter6IndentEi.exit
  %31 = tail call noundef nonnull align 8 dereferenceable(48) ptr @_ZN4llvm11raw_ostream5writeEPKcm(ptr noundef nonnull align 8 dereferenceable(48) %21, ptr noundef nonnull @.str.336, i64 noundef 17) #19
  br label %_ZN4llvm11raw_ostreamlsEPKc.exit

32:                                               ; preds = %_ZN12_GLOBAL__N_111StmtPrinter6IndentEi.exit
  tail call void @llvm.memcpy.p0.p0.i64(ptr noundef nonnull align 1 dereferenceable(17) %25, ptr noundef nonnull align 1 dereferenceable(17) @.str.336, i64 17, i1 false)
  %33 = load ptr, ptr %24, align 8
  %34 = getelementptr inbounds nuw i8, ptr %33, i64 17
  store ptr %34, ptr %24, align 8
  br label %_ZN4llvm11raw_ostreamlsEPKc.exit

_ZN4llvm11raw_ostreamlsEPKc.exit:                 ; preds = %30, %32
  tail call fastcc void @_ZN12_GLOBAL__N_111StmtPrinter27PrintOMPExecutableDirectiveEPN5clang22OMPExecutableDirectiveEb(ptr noundef nonnull align 8 dereferenceable(80) %0, ptr noundef %1, i1 noundef zeroext false)
  ret void
}